; Function Attrs: null_pointer_is_valid sspstrong uwtable
define internal fastcc i32 @dissect_query_afp_disconnect_old_session(ptr noundef %0, ptr noundef %1) unnamed_addr #1 {
  %3 = alloca i32, align 4
  call void @llvm.lifetime.start.p0(i64 4, ptr nonnull %3) #8
  %4 = load i32, ptr @hf_afp_pad, align 4
  %5 = tail call ptr @proto_tree_add_item(ptr noundef %1, i32 noundef %4, ptr noundef %0, i32 noundef 1, i32 noundef 1, i32 noundef 0)
  %6 = load i32, ptr @hf_afp_session_token_type, align 4
  %7 = tail call ptr @proto_tree_add_item(ptr noundef %1, i32 noundef %6, ptr noundef %0, i32 noundef 2, i32 noundef 2, i32 noundef 0)
  %8 = load i32, ptr @hf_afp_session_token_len, align 4
  %9 = call ptr @proto_tree_add_item_ret_uint(ptr noundef %1, i32 noundef %8, ptr noundef %0, i32 noundef 4, i32 noundef 4, i32 noundef 0, ptr noundef nonnull %3)
  %10 = load i32, ptr %3, align 4
  %11 = add i32 %10, 8
  %12 = icmp slt i32 %11, 0
  br i1 %12, label %18, label %13

13:                                               ; preds = %2
  %14 = load i32, ptr @hf_afp_session_token, align 4
  %15 = call ptr @proto_tree_add_item(ptr noundef %1, i32 noundef %14, ptr noundef %0, i32 noundef 8, i32 noundef %10, i32 noundef 0)
  %16 = load i32, ptr %3, align 4
  %17 = add i32 %16, 8
  br label %18

18:                                               ; preds = %2, %13
  %.0 = phi i32 [ %17, %13 ], [ 8, %2 ]
  call void @llvm.lifetime.end.p0(i64 4, ptr nonnull %3) #8
  ret i32 %.0
}